target datalayout = "e-m:e-p270:32:32-p271:32:32-p272:64:64-i64:64-i128:128-f80:128-n8:16:32:64-S128"
target triple = "x86_64-pc-linux-gnu"

@.str.14 = private unnamed_addr constant [4 x i8] c"std\00", align 1
@bignum_ext = internal global i32 0, align 4
@.str.38 = private unnamed_addr constant [3 x i8] c"os\00", align 1

; Function Attrs: nounwind uwtable
define internal ptr @JS_NewCustomContext(ptr noundef %0) #0 {
  %2 = alloca ptr, align 8
  %3 = alloca ptr, align 8
  %4 = alloca ptr, align 8
  store ptr %0, ptr %3, align 8
  %5 = load ptr, ptr %3, align 8
  %6 = call ptr @JS_NewContext(ptr noundef %5)
  store ptr %6, ptr %4, align 8
  %7 = load ptr, ptr %4, align 8
  %8 = icmp ne ptr %7, null
  br i1 %8, label %10, label %9

9:                                                ; preds = %1
  store ptr null, ptr %2, align 8
  br label %24

10:                                               ; preds = %1
  %11 = load i32, ptr @bignum_ext, align 4
  %12 = icmp ne i32 %11, 0
  br i1 %12, label %13, label %18

13:                                               ; preds = %10
  %14 = load ptr, ptr %4, align 8
  call void @JS_AddIntrinsicBigFloat(ptr noundef %14)
  %15 = load ptr, ptr %4, align 8
  call void @JS_AddIntrinsicBigDecimal(ptr noundef %15)
  %16 = load ptr, ptr %4, align 8
  call void @JS_AddIntrinsicOperators(ptr noundef %16)
  %17 = load ptr, ptr %4, align 8
  call void @JS_EnableBignumExt(ptr noundef %17, i32 noundef 1)
  br label %18

18:                                               ; preds = %13, %10
  %19 = load ptr, ptr %4, align 8
  %20 = call ptr @js_init_module_std(ptr noundef %19, ptr noundef @.str.14)
  %21 = load ptr, ptr %4, align 8
  %22 = call ptr @js_init_module_os(ptr noundef %21, ptr noundef @.str.38)
  %23 = load ptr, ptr %4, align 8
  store ptr %23, ptr %2, align 8
  br label %24

24:                                               ; preds = %18, %9
  %25 = load ptr, ptr %2, align 8
  ret ptr %25
}