; Function Attrs: nounwind uwtable
define internal ptr @JS_NewCustomContext(ptr noundef %0) #3 {
  %2 = tail call ptr @JS_NewContext(ptr noundef %0) #16
  %.not = icmp eq ptr %2, null
  br i1 %.not, label %8, label %3

3:                                                ; preds = %1
  %.b = load i1, ptr @bignum_ext, align 4
  br i1 %.b, label %4, label %5

4:                                                ; preds = %3
  tail call void @JS_AddIntrinsicBigFloat(ptr noundef nonnull %2) #16
  tail call void @JS_AddIntrinsicBigDecimal(ptr noundef nonnull %2) #16
  tail call void @JS_AddIntrinsicOperators(ptr noundef nonnull %2) #16
  tail call void @JS_EnableBignumExt(ptr noundef nonnull %2, i32 noundef 1) #16
  br label %5

5:                                                ; preds = %4, %3
  %6 = tail call ptr @js_init_module_std(ptr noundef nonnull %2, ptr noundef nonnull @.str.14) #16
  %7 = tail call ptr @js_init_module_os(ptr noundef nonnull %2, ptr noundef nonnull @.str.38) #16
  br label %8

8:                                                ; preds = %1, %5
  ret ptr %2
}